target datalayout = "e-m:e-p270:32:32-p271:32:32-p272:64:64-i64:64-i128:128-f80:128-n8:16:32:64-S128"
target triple = "x86_64-pc-linux-gnu"

@supported_device_ids = internal global [6 x i32] [i32 49743, i32 49819, i32 49817, i32 49818, i32 49816, i32 49812], align 16

; Function Attrs: nounwind uwtable
define internal zeroext i1 @SDL_HIDAPI_HapticDriverLg4ff_JoystickSupported(ptr noundef %0) #0 {
  %2 = alloca i1, align 1
  %3 = alloca ptr, align 8
  %4 = alloca i16, align 2
  %5 = alloca i16, align 2
  %6 = alloca i32, align 4
  %7 = alloca i32, align 4
  store ptr %0, ptr %3, align 8
  call void @llvm.lifetime.start.p0(i64 2, ptr %4) #6
  %8 = load ptr, ptr %3, align 8
  %9 = call zeroext i16 @SDL_GetJoystickVendor_REAL(ptr noundef %8)
  store i16 %9, ptr %4, align 2
  call void @llvm.lifetime.start.p0(i64 2, ptr %5) #6
  %10 = load ptr, ptr %3, align 8
  %11 = call zeroext i16 @SDL_GetJoystickProduct_REAL(ptr noundef %10)
  store i16 %11, ptr %5, align 2
  %12 = load i16, ptr %4, align 2
  %13 = zext i16 %12 to i32
  %14 = icmp ne i32 %13, 1133
  br i1 %14, label %15, label %16

15:                                               ; preds = %1
  store i1 false, ptr %2, align 1
  store i32 1, ptr %6, align 4
  br label %38

16:                                               ; preds = %1
  call void @llvm.lifetime.start.p0(i64 4, ptr %7) #6
  store i32 0, ptr %7, align 4
  br label %17

17:                                               ; preds = %32, %16
  %18 = load i32, ptr %7, align 4
  %19 = sext i32 %18 to i64
  %20 = icmp ult i64 %19, 6
  br i1 %20, label %22, label %21

21:                                               ; preds = %17
  store i32 2, ptr %6, align 4
  br label %35

22:                                               ; preds = %17
  %23 = load i32, ptr %7, align 4
  %24 = sext i32 %23 to i64
  %25 = getelementptr inbounds [6 x i32], ptr @supported_device_ids, i64 0, i64 %24
  %26 = load i32, ptr %25, align 4
  %27 = load i16, ptr %5, align 2
  %28 = zext i16 %27 to i32
  %29 = icmp eq i32 %26, %28
  br i1 %29, label %30, label %31

30:                                               ; preds = %22
  store i1 true, ptr %2, align 1
  store i32 1, ptr %6, align 4
  br label %35

31:                                               ; preds = %22
  br label %32

32:                                               ; preds = %31
  %33 = load i32, ptr %7, align 4
  %34 = add nsw i32 %33, 1
  store i32 %34, ptr %7, align 4
  br label %17, !llvm.loop !3

35:                                               ; preds = %30, %21
  call void @llvm.lifetime.end.p0(i64 4, ptr %7) #6
  %36 = load i32, ptr %6, align 4
  switch i32 %36, label %38 [
    i32 2, label %37
  ]

37:                                               ; preds = %35
  store i1 false, ptr %2, align 1
  store i32 1, ptr %6, align 4
  br label %38

38:                                               ; preds = %37, %35, %15
  call void @llvm.lifetime.end.p0(i64 2, ptr %5) #6
  call void @llvm.lifetime.end.p0(i64 2, ptr %4) #6
  %39 = load i1, ptr %2, align 1
  ret i1 %39
}