; Function Attrs: nounwind uwtable
define internal noundef zeroext i1 @SDL_HIDAPI_HapticDriverLg4ff_JoystickSupported(ptr noundef %0) #0 {
  %2 = tail call zeroext i16 @SDL_GetJoystickVendor_REAL(ptr noundef %0) #8
  %3 = tail call zeroext i16 @SDL_GetJoystickProduct_REAL(ptr noundef %0) #8
  %.not = icmp eq i16 %2, 1133
  br i1 %.not, label %.preheader, label %.loopexit

.preheader:                                       ; preds = %1
  %4 = zext i16 %3 to i32
  br label %5

5:                                                ; preds = %5, %.preheader
  %indvars.iv = phi i64 [ 0, %.preheader ], [ %indvars.iv.next, %5 ]
  %6 = getelementptr inbounds nuw [6 x i32], ptr @supported_device_ids, i64 0, i64 %indvars.iv
  %7 = load i32, ptr %6, align 4
  %8 = icmp eq i32 %7, %4
  %indvars.iv.next = add nuw nsw i64 %indvars.iv, 1
  %exitcond.not = icmp eq i64 %indvars.iv.next, 6
  %or.cond = select i1 %8, i1 true, i1 %exitcond.not
  br i1 %or.cond, label %.loopexit, label %5, !llvm.loop !3

.loopexit:                                        ; preds = %5, %1
  %.09 = phi i1 [ false, %1 ], [ %8, %5 ]
  ret i1 %.09
}